target datalayout = "e-m:e-p270:32:32-p271:32:32-p272:64:64-i64:64-i128:128-f80:128-n8:16:32:64-S128"
target triple = "x86_64-pc-linux-gnu"

%struct.WOLFSSL_BUFFER_INFO = type { ptr, i32 }
%struct.WOLFSSL = type <{ ptr, ptr, ptr, ptr, [48 x i8], [48 x i8], ptr, ptr, ptr, ptr, ptr, ptr, ptr, ptr, ptr, ptr, ptr, ptr, ptr, i32, [4 x i8], %struct.WOLFSSL_CIPHER, ptr, %struct.Ciphers, %struct.Ciphers, [8 x i8], %struct.Buffers, ptr, ptr, %struct.WOLFSSL_ALERT_HISTORY, %struct.WOLFSSL_ALERT, i32, i32, i32, i32, i32, i32, i32, i16, [2 x i8], i32, i8, %struct.RecordLayerHeader, %struct.MsgsReceived, %struct.ProtocolVersion, %struct.ProtocolVersion, %struct.CipherSpecs, [2 x i8], %struct.Keys, %struct.Options, ptr, i8, i8, i16, [10 x i16], i8, i8, i16, i16, [38 x i8], i32, i32, [4 x i8], ptr, i8, i8, [6 x i8], ptr, ptr, i16, i8, i8, i32, i8, [3 x i8], i32, %struct.OneTimeAuth, ptr }>
%struct.WOLFSSL_CIPHER = type { i8, i8, ptr }
%struct.Ciphers = type { ptr, ptr, ptr, ptr, i8, i8 }
%struct.Buffers = type { %struct.bufferStatic, %struct.bufferStatic, %struct.WOLFSSL_BUFFER_INFO, %struct.WOLFSSL_BUFFER_INFO, %struct.WOLFSSL_BUFFER_INFO, %struct.WOLFSSL_BUFFER_INFO, i32, i32, i8, i8, i8, i8, %struct.WOLFSSL_BUFFER_INFO, %struct.WOLFSSL_BUFFER_INFO, %struct.WOLFSSL_BUFFER_INFO, %struct.WOLFSSL_BUFFER_INFO, ptr, ptr, ptr, i8, i8, i32, i32, ptr, i32, [1 x ptr] }
%struct.bufferStatic = type { [5 x i8], ptr, i32, i32, i32, i8, i8 }
%struct.WOLFSSL_ALERT_HISTORY = type { %struct.WOLFSSL_ALERT, %struct.WOLFSSL_ALERT }
%struct.WOLFSSL_ALERT = type { i32, i32 }
%struct.RecordLayerHeader = type { i8, i8, i8, [2 x i8] }
%struct.MsgsReceived = type { i32 }
%struct.ProtocolVersion = type { i8, i8 }
%struct.CipherSpecs = type { i16, i16, i16, i16, i8, i8, i8, i8, i8, i8, i8, i8 }
%struct.Keys = type { [64 x i8], [64 x i8], [32 x i8], [32 x i8], [16 x i8], [16 x i8], [8 x i8], [12 x i8], [12 x i8], i32, i32, i32, i32, i32, i32, i8, i8, i8, i8 }
%struct.Options = type { i64, i64, i8, i8, i8, i8, i8, i8, i8, i8, i8, i8, i8, i8, i8, i8, i8, i8, i8, i8, i8, i8, i8, i16, i16, i16, i16, i16, i8 }
%struct.OneTimeAuth = type { ptr, i8 }

; Function Attrs: nounwind uwtable
define i32 @wolfSSL_negotiate(ptr noundef %0) #0 {
  %2 = alloca i32, align 4
  %3 = alloca ptr, align 8
  %4 = alloca i32, align 4
  %5 = alloca i32, align 4
  store ptr %0, ptr %3, align 8, !tbaa !61
  call void @llvm.lifetime.start.p0(i64 4, ptr %4) #9
  store i32 -1, ptr %4, align 4, !tbaa !7
  br label %6

6:                                                ; preds = %1
  br label %7

7:                                                ; preds = %6
  br label %8

8:                                                ; preds = %7
  %9 = load ptr, ptr %3, align 8, !tbaa !61
  %10 = icmp eq ptr %9, null
  br i1 %10, label %11, label %12

11:                                               ; preds = %8
  store i32 -1, ptr %2, align 4
  store i32 1, ptr %5, align 4
  br label %63

12:                                               ; preds = %8
  %13 = load ptr, ptr %3, align 8, !tbaa !61
  %14 = getelementptr inbounds nuw %struct.WOLFSSL, ptr %13, i32 0, i32 49
  %15 = getelementptr inbounds nuw %struct.Options, ptr %14, i32 0, i32 1
  %16 = load i64, ptr %15, align 8
  %17 = lshr i64 %16, 4
  %18 = and i64 %17, 3
  %19 = trunc i64 %18 to i16
  %20 = zext i16 %19 to i32
  %21 = icmp eq i32 %20, 0
  br i1 %21, label %22, label %35

22:                                               ; preds = %12
  %23 = load ptr, ptr %3, align 8, !tbaa !61
  %24 = getelementptr inbounds nuw %struct.WOLFSSL, ptr %23, i32 0, i32 44
  %25 = load i16, ptr %24, align 2
  %26 = call i32 @IsAtLeastTLSv1_3(i16 %25)
  %27 = icmp ne i32 %26, 0
  br i1 %27, label %28, label %31

28:                                               ; preds = %22
  %29 = load ptr, ptr %3, align 8, !tbaa !61
  %30 = call i32 @wolfSSL_accept_TLSv13(ptr noundef %29)
  store i32 %30, ptr %4, align 4, !tbaa !7
  br label %34

31:                                               ; preds = %22
  %32 = load ptr, ptr %3, align 8, !tbaa !61
  %33 = call i32 @wolfSSL_accept(ptr noundef %32)
  store i32 %33, ptr %4, align 4, !tbaa !7
  br label %34

34:                                               ; preds = %31, %28
  br label %35

35:                                               ; preds = %34, %12
  %36 = load ptr, ptr %3, align 8, !tbaa !61
  %37 = getelementptr inbounds nuw %struct.WOLFSSL, ptr %36, i32 0, i32 49
  %38 = getelementptr inbounds nuw %struct.Options, ptr %37, i32 0, i32 1
  %39 = load i64, ptr %38, align 8
  %40 = lshr i64 %39, 4
  %41 = and i64 %40, 3
  %42 = trunc i64 %41 to i16
  %43 = zext i16 %42 to i32
  %44 = icmp eq i32 %43, 1
  br i1 %44, label %45, label %58

45:                                               ; preds = %35
  %46 = load ptr, ptr %3, align 8, !tbaa !61
  %47 = getelementptr inbounds nuw %struct.WOLFSSL, ptr %46, i32 0, i32 44
  %48 = load i16, ptr %47, align 2
  %49 = call i32 @IsAtLeastTLSv1_3(i16 %48)
  %50 = icmp ne i32 %49, 0
  br i1 %50, label %51, label %54

51:                                               ; preds = %45
  %52 = load ptr, ptr %3, align 8, !tbaa !61
  %53 = call i32 @wolfSSL_connect_TLSv13(ptr noundef %52)
  store i32 %53, ptr %4, align 4, !tbaa !7
  br label %57

54:                                               ; preds = %45
  %55 = load ptr, ptr %3, align 8, !tbaa !61
  %56 = call i32 @wolfSSL_connect(ptr noundef %55)
  store i32 %56, ptr %4, align 4, !tbaa !7
  br label %57

57:                                               ; preds = %54, %51
  br label %58

58:                                               ; preds = %57, %35
  br label %59

59:                                               ; preds = %58
  br label %60

60:                                               ; preds = %59
  br label %61

61:                                               ; preds = %60
  %62 = load i32, ptr %4, align 4, !tbaa !7
  store i32 %62, ptr %2, align 4
  store i32 1, ptr %5, align 4
  br label %63

63:                                               ; preds = %61, %11
  call void @llvm.lifetime.end.p0(i64 4, ptr %4) #9
  %64 = load i32, ptr %2, align 4
  ret i32 %64
}