; Function Attrs: nounwind uwtable
define i32 @wolfSSL_negotiate(ptr noundef %0) local_unnamed_addr #0 {
  %2 = icmp eq ptr %0, null
  br i1 %2, label %28, label %3

3:                                                ; preds = %1
  %4 = getelementptr inbounds nuw i8, ptr %0, i64 1024
  %5 = load i64, ptr %4, align 8
  %6 = and i64 %5, 48
  %7 = icmp eq i64 %6, 0
  br i1 %7, label %8, label %16

8:                                                ; preds = %3
  %9 = getelementptr inbounds nuw i8, ptr %0, i64 710
  %10 = load i16, ptr %9, align 2
  %11 = tail call i32 @IsAtLeastTLSv1_3(i16 %10) #22
  %.not = icmp eq i32 %11, 0
  br i1 %.not, label %14, label %12

12:                                               ; preds = %8
  %13 = tail call i32 @wolfSSL_accept_TLSv13(ptr noundef nonnull %0) #22
  br label %16

14:                                               ; preds = %8
  %15 = tail call i32 @wolfSSL_accept(ptr noundef nonnull %0)
  br label %16

16:                                               ; preds = %12, %14, %3
  %.0 = phi i32 [ %13, %12 ], [ %15, %14 ], [ -1, %3 ]
  %17 = load i64, ptr %4, align 8
  %18 = and i64 %17, 48
  %19 = icmp eq i64 %18, 16
  br i1 %19, label %20, label %28

20:                                               ; preds = %16
  %21 = getelementptr inbounds nuw i8, ptr %0, i64 710
  %22 = load i16, ptr %21, align 2
  %23 = tail call i32 @IsAtLeastTLSv1_3(i16 %22) #22
  %.not12 = icmp eq i32 %23, 0
  br i1 %.not12, label %26, label %24

24:                                               ; preds = %20
  %25 = tail call i32 @wolfSSL_connect_TLSv13(ptr noundef nonnull %0) #22
  br label %28

26:                                               ; preds = %20
  %27 = tail call i32 @wolfSSL_connect(ptr noundef nonnull %0)
  br label %28

28:                                               ; preds = %24, %26, %16, %1
  %.010 = phi i32 [ -1, %1 ], [ %25, %24 ], [ %27, %26 ], [ %.0, %16 ]
  ret i32 %.010
}